target datalayout = "e-m:e-p270:32:32-p271:32:32-p272:64:64-i64:64-i128:128-f80:128-n8:16:32:64-S128"
target triple = "x86_64-pc-linux-gnu"

; Function Attrs: mustprogress nounwind uwtable
define internal noundef zeroext i1 @_ZN3gmxL13isNullOrEmptyEPKc(ptr noundef %0) #0 {
  %2 = alloca ptr, align 8
  store ptr %0, ptr %2, align 8
  %3 = load ptr, ptr %2, align 8
  %4 = icmp eq ptr %3, null
  br i1 %4, label %11, label %5

5:                                                ; preds = %1
  %6 = load ptr, ptr %2, align 8
  %7 = getelementptr inbounds i8, ptr %6, i64 0
  %8 = load i8, ptr %7, align 1
  %9 = sext i8 %8 to i32
  %10 = icmp eq i32 %9, 0
  br label %11

11:                                               ; preds = %5, %1
  %12 = phi i1 [ true, %1 ], [ %10, %5 ]
  ret i1 %12
}

; Function Attrs: mustprogress uwtable
define noundef zeroext i1 @_ZN3gmx8endsWithEPKcS1_(ptr noundef %0, ptr noundef %1) #3 {
  %3 = alloca i1, align 1
  %4 = alloca ptr, align 8
  %5 = alloca ptr, align 8
  %6 = alloca i64, align 8
  %7 = alloca i64, align 8
  store ptr %0, ptr %4, align 8
  store ptr %1, ptr %5, align 8
  %8 = load ptr, ptr %5, align 8
  %9 = call noundef zeroext i1 @_ZN3gmxL13isNullOrEmptyEPKc(ptr noundef %8)
  br i1 %9, label %10, label %11

10:                                               ; preds = %2
  store i1 true, ptr %3, align 1
  br label %30

11:                                               ; preds = %2
  %12 = load ptr, ptr %4, align 8
  %13 = call i64 @strlen(ptr noundef %12) #12
  store i64 %13, ptr %6, align 8
  %14 = load ptr, ptr %5, align 8
  %15 = call i64 @strlen(ptr noundef %14) #12
  store i64 %15, ptr %7, align 8
  %16 = load i64, ptr %6, align 8
  %17 = load i64, ptr %7, align 8
  %18 = icmp uge i64 %16, %17
  br i1 %18, label %19, label %28

19:                                               ; preds = %11
  %20 = load ptr, ptr %4, align 8
  %21 = load i64, ptr %6, align 8
  %22 = load i64, ptr %7, align 8
  %23 = sub i64 %21, %22
  %24 = getelementptr inbounds i8, ptr %20, i64 %23
  %25 = load ptr, ptr %5, align 8
  %26 = call i32 @strcmp(ptr noundef %24, ptr noundef %25) #12
  %27 = icmp eq i32 %26, 0
  br label %28

28:                                               ; preds = %19, %11
  %29 = phi i1 [ false, %11 ], [ %27, %19 ]
  store i1 %29, ptr %3, align 1
  br label %30

30:                                               ; preds = %28, %10
  %31 = load i1, ptr %3, align 1
  ret i1 %31
}