; Function Attrs: mustprogress nofree nounwind willreturn memory(argmem: read) uwtable
define noundef zeroext i1 @_ZN3gmx8endsWithEPKcS1_(ptr nocapture noundef readonly %0, ptr noundef readonly %1) local_unnamed_addr #5 {
  %3 = icmp eq ptr %1, null
  br i1 %3, label %_ZN3gmxL13isNullOrEmptyEPKc.exit.thread, label %_ZN3gmxL13isNullOrEmptyEPKc.exit

_ZN3gmxL13isNullOrEmptyEPKc.exit:                 ; preds = %2
  %4 = load i8, ptr %1, align 1
  %5 = icmp eq i8 %4, 0
  br i1 %5, label %_ZN3gmxL13isNullOrEmptyEPKc.exit.thread, label %6

6:                                                ; preds = %_ZN3gmxL13isNullOrEmptyEPKc.exit
  %7 = tail call i64 @strlen(ptr noundef nonnull dereferenceable(1) %0) #21
  %8 = tail call i64 @strlen(ptr noundef nonnull dereferenceable(1) %1) #21
  %.not = icmp ult i64 %7, %8
  br i1 %.not, label %_ZN3gmxL13isNullOrEmptyEPKc.exit.thread, label %9

9:                                                ; preds = %6
  %10 = sub i64 %7, %8
  %11 = getelementptr inbounds i8, ptr %0, i64 %10
  %12 = tail call i32 @strcmp(ptr noundef nonnull dereferenceable(1) %11, ptr noundef nonnull dereferenceable(1) %1) #21
  %13 = icmp eq i32 %12, 0
  br label %_ZN3gmxL13isNullOrEmptyEPKc.exit.thread

_ZN3gmxL13isNullOrEmptyEPKc.exit.thread:          ; preds = %2, %6, %9, %_ZN3gmxL13isNullOrEmptyEPKc.exit
  %.0 = phi i1 [ true, %_ZN3gmxL13isNullOrEmptyEPKc.exit ], [ false, %6 ], [ %13, %9 ], [ true, %2 ]
  ret i1 %.0
}